; Function Attrs: mustprogress uwtable
define hidden noalias noundef ptr @_ZN7datalog21table_relation_plugin11mk_union_fnERKNS_13relation_baseES3_PS2_(ptr noundef nonnull readonly align 8 captures(none) dereferenceable(48) %0, ptr noundef nonnull readonly align 8 captures(none) dereferenceable(28) %1, ptr noundef nonnull readonly align 8 captures(none) dereferenceable(28) %2, ptr noundef readonly captures(address_is_null) %3) unnamed_addr #3 align 2 personality ptr @__gxx_personality_v0 {
  %5 = getelementptr inbounds nuw i8, ptr %2, i64 8
  %6 = load ptr, ptr %5, align 8, !tbaa !54
  %7 = getelementptr inbounds nuw i8, ptr %6, i64 32
  %8 = load i32, ptr %7, align 8, !tbaa !55
  %9 = icmp eq i32 %8, 1
  br i1 %9, label %10, label %35

10:                                               ; preds = %4
  %11 = getelementptr inbounds nuw i8, ptr %1, i64 8
  %12 = load ptr, ptr %11, align 8, !tbaa !54
  %13 = getelementptr inbounds nuw i8, ptr %12, i64 32
  %14 = load i32, ptr %13, align 8, !tbaa !55
  %15 = icmp eq i32 %14, 1
  br i1 %15, label %16, label %23

16:                                               ; preds = %10
  %.not = icmp eq ptr %3, null
  br i1 %.not, label %.thread, label %17

17:                                               ; preds = %16
  %18 = getelementptr inbounds nuw i8, ptr %3, i64 8
  %19 = load ptr, ptr %18, align 8, !tbaa !54
  %20 = getelementptr inbounds nuw i8, ptr %19, i64 32
  %21 = load i32, ptr %20, align 8, !tbaa !55
  %22 = icmp eq i32 %21, 1
  br i1 %22, label %25, label %23

23:                                               ; preds = %17, %10
  %24 = tail call noalias noundef ptr @_ZN6memory8allocateEm(i64 noundef 8)
  store ptr getelementptr inbounds nuw inrange(-16, 24) (i8, ptr @_ZTVN7datalog21table_relation_plugin25universal_target_union_fnE, i64 16), ptr %24, align 8, !tbaa !32
  br label %35

25:                                               ; preds = %17
  %26 = getelementptr inbounds nuw i8, ptr %3, i64 32
  %27 = load ptr, ptr %26, align 8, !tbaa !47
  br label %.thread

.thread:                                          ; preds = %16, %25
  %28 = phi ptr [ %27, %25 ], [ null, %16 ]
  %.in16 = getelementptr inbounds nuw i8, ptr %0, i64 24
  %29 = load ptr, ptr %.in16, align 8, !tbaa !23
  %.in15 = getelementptr inbounds nuw i8, ptr %1, i64 32
  %30 = load ptr, ptr %.in15, align 8, !tbaa !47
  %.in = getelementptr inbounds nuw i8, ptr %2, i64 32
  %31 = load ptr, ptr %.in, align 8, !tbaa !47
  %32 = tail call noundef ptr @_ZN7datalog16relation_manager11mk_union_fnERKNS_10table_baseES3_PS2_(ptr noundef nonnull align 8 dereferenceable(200) %29, ptr noundef nonnull align 8 dereferenceable(36) %30, ptr noundef nonnull align 8 dereferenceable(36) %31, ptr noundef %28)
  %33 = tail call noalias noundef ptr @_ZN6memory8allocateEm(i64 noundef 16)
  store ptr getelementptr inbounds nuw inrange(-16, 24) (i8, ptr @_ZTVN7datalog21table_relation_plugin11tr_union_fnE, i64 16), ptr %33, align 8, !tbaa !32
  %34 = getelementptr inbounds nuw i8, ptr %33, i64 8
  store ptr %32, ptr %34, align 8, !tbaa !69
  br label %35

35:                                               ; preds = %4, %.thread, %23
  %.0 = phi ptr [ %33, %.thread ], [ %24, %23 ], [ null, %4 ]
  ret ptr %.0
}